; Function Attrs: uwtable
define void @_ZN9grpc_core8channelz12ChannelTraceC2Em(ptr noundef nonnull writeonly align 8 captures(none) dereferenceable(64) initializes((0, 64)) %0, i64 noundef %1) unnamed_addr #3 align 2 {
  %3 = alloca %"class.grpc_core::Timestamp", align 8
  store i64 %1, ptr %0, align 8, !tbaa !99
  call void @llvm.lifetime.start.p0(i64 8, ptr nonnull %3) #23
  %.not.i.i = icmp eq ptr @_ZTHN9grpc_core9Timestamp25thread_local_time_source_E, null
  br i1 %.not.i.i, label %_ZN9grpc_core9Timestamp3NowEv.exit, label %4

4:                                                ; preds = %2
  tail call void @_ZTHN9grpc_core9Timestamp25thread_local_time_source_E()
  br label %_ZN9grpc_core9Timestamp3NowEv.exit

_ZN9grpc_core9Timestamp3NowEv.exit:               ; preds = %2, %4
  %5 = getelementptr inbounds nuw i8, ptr %0, i64 8
  %6 = tail call noundef align 8 ptr @llvm.threadlocal.address.p0(ptr align 8 @_ZN9grpc_core9Timestamp25thread_local_time_source_E)
  %7 = load ptr, ptr %6, align 8, !tbaa !3
  %8 = load ptr, ptr %7, align 8, !tbaa !8
  %9 = load ptr, ptr %8, align 8
  %10 = tail call i64 %9(ptr noundef nonnull align 8 dereferenceable(8) %7)
  store i64 %10, ptr %3, align 8
  %11 = call { i64, i64 } @_ZNK9grpc_core9Timestamp11as_timespecE14gpr_clock_type(ptr noundef nonnull align 8 dereferenceable(8) %3, i32 noundef 1)
  %12 = extractvalue { i64, i64 } %11, 0
  store i64 %12, ptr %5, align 8
  %13 = getelementptr inbounds nuw i8, ptr %0, i64 16
  %14 = extractvalue { i64, i64 } %11, 1
  store i64 %14, ptr %13, align 8
  call void @llvm.lifetime.end.p0(i64 8, ptr nonnull %3) #23
  %15 = getelementptr inbounds nuw i8, ptr %0, i64 24
  call void @llvm.memset.p0.i64(ptr noundef nonnull align 8 dereferenceable(40) %15, i8 0, i64 40, i1 false)
  ret void
}